(dp0
(S'72'
p1
I0
tp2
F30.0851456
s(S'5'
p3
I2
tp4
F0.0
s(S'27'
p5
I1
tp6
I0
s(S'73'
p7
I1
tp8
I0
s(S'[6, 6]True'
p9
I2
tp10
I-200
s(S'26'
p11
I0
tp12
I10
s(S'6'
p13
I0
tp14
F22.96648896674292
s(S'8'
p15
I2
tp16
F0.0
s(S'7'
p17
I1
tp18
I0
s(S'82'
p19
I0
tp20
F11.127855445508096
s(S'3'
p21
I0
tp22
F13.554607104
s(S'2'
p23
I1
tp24
I0
s(S'[6]True'
p25
I1
tp26
F-187.49258187293788
s(g15
I1
tp27
I0
s(S'[6, 5]True'
p28
I2
tp29
I-200
s(S'82'
p30
I1
tp31
I0
s(S'[6]False'
p32
I0
tp33
F23.426894627592105
s(S'9'
p34
I0
tp35
F26.6008547180544
s(S'7'
p36
I2
tp37
I0
s(S'[6]True'
p38
I0
tp39
F-187.50859649281887
s(S'4'
p40
I1
tp41
I0
s(S'72'
p42
I2
tp43
F-160.0
s(g13
I2
tp44
F0.0
s(g3
I0
tp45
F31.10911513170838
s(g23
I0
tp46
F10.0
s(S'[6, 5]True'
p47
I1
tp48
I-200
s(S'79'
p49
I0
tp50
I10
s(g40
I0
tp51
F15.639277227540479
s(S'72'
p52
I1
tp53
F3.3653555199999996
s(g13
I1
tp54
I0
s(S'[6, 5]True'
p55
I0
tp56
I-200
s(g36
I0
tp57
F10.97025980282962
s(S'[6]True'
p58
I2
tp59
F-187.49258187293788
s.